; Function Attrs: nounwind uwtable
define ptr @l_Array_mapMUnsafe_map___at___private_Lean_Elab_Binders_0__Lean_Elab_Term_expandMatchAltsIntoMatchAux___spec__2(ptr noundef %0, ptr noundef %1, i64 noundef %2, i64 noundef %3, ptr noundef %4) local_unnamed_addr #1 {
  %.not59 = icmp ult i64 %3, %2
  %6 = ptrtoint ptr %1 to i64
  %7 = and i64 %6, 1
  br i1 %.not59, label %.lr.ph, label %._crit_edge

.lr.ph:                                           ; preds = %5
  %.not55 = icmp eq i64 %7, 0
  %8 = ptrtoint ptr %0 to i64
  %9 = and i64 %8, 1
  %.not56 = icmp eq i64 %9, 0
  br label %26

._crit_edge:                                      ; preds = %lean_dec.exit, %5
  %.027.lcssa = phi ptr [ %4, %5 ], [ %.0.i.i44, %lean_dec.exit ]
  %.not57 = icmp eq i64 %7, 0
  br i1 %.not57, label %10, label %lean_dec.exit30

10:                                               ; preds = %._crit_edge
  %11 = load i32, ptr %1, align 4, !tbaa !8
  %12 = icmp sgt i32 %11, 1
  br i1 %12, label %13, label %15, !prof !11

13:                                               ; preds = %10
  %14 = add nsw i32 %11, -1
  store i32 %14, ptr %1, align 4, !tbaa !8
  br label %lean_dec.exit30

15:                                               ; preds = %10
  %.not.i = icmp eq i32 %11, 0
  br i1 %.not.i, label %lean_dec.exit30, label %16

16:                                               ; preds = %15
  tail call void @lean_dec_ref_cold(ptr noundef nonnull %1) #6
  br label %lean_dec.exit30

lean_dec.exit30:                                  ; preds = %16, %15, %13, %._crit_edge
  %17 = ptrtoint ptr %0 to i64
  %18 = and i64 %17, 1
  %.not58 = icmp eq i64 %18, 0
  br i1 %.not58, label %19, label %83

19:                                               ; preds = %lean_dec.exit30
  %20 = load i32, ptr %0, align 4, !tbaa !8
  %21 = icmp sgt i32 %20, 1
  br i1 %21, label %22, label %24, !prof !11

22:                                               ; preds = %19
  %23 = add nsw i32 %20, -1
  store i32 %23, ptr %0, align 4, !tbaa !8
  br label %83

24:                                               ; preds = %19
  %.not.i32 = icmp eq i32 %20, 0
  br i1 %.not.i32, label %83, label %25

25:                                               ; preds = %24
  tail call void @lean_dec_ref_cold(ptr noundef nonnull %0) #6
  br label %83

26:                                               ; preds = %.lr.ph, %lean_dec.exit
  %.02561 = phi i64 [ %3, %.lr.ph ], [ %67, %lean_dec.exit ]
  %.02760 = phi ptr [ %4, %.lr.ph ], [ %.0.i.i44, %lean_dec.exit ]
  %27 = getelementptr inbounds nuw i8, ptr %.02760, i64 24
  %28 = getelementptr inbounds nuw [0 x ptr], ptr %27, i64 0, i64 %.02561
  %29 = load ptr, ptr %28, align 8, !tbaa !4
  %30 = ptrtoint ptr %29 to i64
  %31 = and i64 %30, 1
  %.not.i34 = icmp eq i64 %31, 0
  br i1 %.not.i34, label %32, label %lean_array_uget.exit

32:                                               ; preds = %26
  %.val.i.i = load i32, ptr %29, align 4, !tbaa !8
  %33 = icmp sgt i32 %.val.i.i, 0
  br i1 %33, label %34, label %36, !prof !11

34:                                               ; preds = %32
  %35 = add nuw i32 %.val.i.i, 1
  store i32 %35, ptr %29, align 4, !tbaa !8
  br label %lean_array_uget.exit

36:                                               ; preds = %32
  %.not.i.i = icmp eq i32 %.val.i.i, 0
  br i1 %.not.i.i, label %lean_array_uget.exit, label %37

37:                                               ; preds = %36
  tail call void @lean_inc_ref_cold(ptr noundef nonnull %29) #6
  br label %lean_array_uget.exit

lean_array_uget.exit:                             ; preds = %26, %34, %36, %37
  %.val.i.i35 = load i32, ptr %.02760, align 4, !tbaa !8
  %38 = icmp eq i32 %.val.i.i35, 1
  br i1 %38, label %lean_ensure_exclusive_array.exit.i, label %39

39:                                               ; preds = %lean_array_uget.exit
  %40 = tail call ptr @lean_copy_expand_array(ptr noundef nonnull %.02760, i1 noundef zeroext false) #6
  br label %lean_ensure_exclusive_array.exit.i

lean_ensure_exclusive_array.exit.i:               ; preds = %39, %lean_array_uget.exit
  %.0.i.i = phi ptr [ %40, %39 ], [ %.02760, %lean_array_uget.exit ]
  %41 = getelementptr inbounds nuw i8, ptr %.0.i.i, i64 24
  %42 = getelementptr inbounds nuw ptr, ptr %41, i64 %.02561
  %43 = load ptr, ptr %42, align 8, !tbaa !4
  %44 = ptrtoint ptr %43 to i64
  %45 = and i64 %44, 1
  %.not.i36 = icmp eq i64 %45, 0
  br i1 %.not.i36, label %46, label %lean_array_uset.exit

46:                                               ; preds = %lean_ensure_exclusive_array.exit.i
  %47 = load i32, ptr %43, align 4, !tbaa !8
  %48 = icmp sgt i32 %47, 1
  br i1 %48, label %49, label %51, !prof !11

49:                                               ; preds = %46
  %50 = add nsw i32 %47, -1
  store i32 %50, ptr %43, align 4, !tbaa !8
  br label %lean_array_uset.exit

51:                                               ; preds = %46
  %.not.i.i37 = icmp eq i32 %47, 0
  br i1 %.not.i.i37, label %lean_array_uset.exit, label %52

52:                                               ; preds = %51
  tail call void @lean_dec_ref_cold(ptr noundef nonnull %43) #6
  br label %lean_array_uset.exit

lean_array_uset.exit:                             ; preds = %lean_ensure_exclusive_array.exit.i, %49, %51, %52
  store ptr inttoptr (i64 1 to ptr), ptr %42, align 8, !tbaa !4
  %53 = load ptr, ptr @l_Lean_Elab_Term_expandFunBinders_loop___closed__4, align 8, !tbaa !4
  br i1 %.not55, label %54, label %lean_inc.exit31

54:                                               ; preds = %lean_array_uset.exit
  %.val.i = load i32, ptr %1, align 4, !tbaa !8
  %55 = icmp sgt i32 %.val.i, 0
  br i1 %55, label %56, label %58, !prof !11

56:                                               ; preds = %54
  %57 = add nuw i32 %.val.i, 1
  store i32 %57, ptr %1, align 4, !tbaa !8
  br label %lean_inc.exit31

58:                                               ; preds = %54
  %.not.i38 = icmp eq i32 %.val.i, 0
  br i1 %.not.i38, label %lean_inc.exit31, label %59

59:                                               ; preds = %58
  tail call void @lean_inc_ref_cold(ptr noundef nonnull %1) #6
  br label %lean_inc.exit31

lean_inc.exit31:                                  ; preds = %59, %58, %56, %lean_array_uset.exit
  br i1 %.not56, label %60, label %lean_inc.exit

60:                                               ; preds = %lean_inc.exit31
  %.val.i39 = load i32, ptr %0, align 4, !tbaa !8
  %61 = icmp sgt i32 %.val.i39, 0
  br i1 %61, label %62, label %64, !prof !11

62:                                               ; preds = %60
  %63 = add nuw i32 %.val.i39, 1
  store i32 %63, ptr %0, align 4, !tbaa !8
  br label %lean_inc.exit

64:                                               ; preds = %60
  %.not.i40 = icmp eq i32 %.val.i39, 0
  br i1 %.not.i40, label %lean_inc.exit, label %65

65:                                               ; preds = %64
  tail call void @lean_inc_ref_cold(ptr noundef nonnull %0) #6
  br label %lean_inc.exit

lean_inc.exit:                                    ; preds = %65, %64, %62, %lean_inc.exit31
  %66 = tail call ptr @l_Lean_Syntax_node2(ptr noundef %0, ptr noundef %53, ptr noundef %1, ptr noundef %29) #6
  %67 = add nuw i64 %.02561, 1
  %.val.i.i42 = load i32, ptr %.0.i.i, align 4, !tbaa !8
  %68 = icmp eq i32 %.val.i.i42, 1
  br i1 %68, label %lean_ensure_exclusive_array.exit.i43, label %69

69:                                               ; preds = %lean_inc.exit
  %70 = tail call ptr @lean_copy_expand_array(ptr noundef nonnull %.0.i.i, i1 noundef zeroext false) #6
  br label %lean_ensure_exclusive_array.exit.i43

lean_ensure_exclusive_array.exit.i43:             ; preds = %69, %lean_inc.exit
  %.0.i.i44 = phi ptr [ %70, %69 ], [ %.0.i.i, %lean_inc.exit ]
  %71 = getelementptr inbounds nuw i8, ptr %.0.i.i44, i64 24
  %72 = getelementptr inbounds nuw ptr, ptr %71, i64 %.02561
  %73 = load ptr, ptr %72, align 8, !tbaa !4
  %74 = ptrtoint ptr %73 to i64
  %75 = and i64 %74, 1
  %.not.i45 = icmp eq i64 %75, 0
  br i1 %.not.i45, label %76, label %lean_dec.exit

76:                                               ; preds = %lean_ensure_exclusive_array.exit.i43
  %77 = load i32, ptr %73, align 4, !tbaa !8
  %78 = icmp sgt i32 %77, 1
  br i1 %78, label %79, label %81, !prof !11

79:                                               ; preds = %76
  %80 = add nsw i32 %77, -1
  store i32 %80, ptr %73, align 4, !tbaa !8
  br label %lean_dec.exit

81:                                               ; preds = %76
  %.not.i.i46 = icmp eq i32 %77, 0
  br i1 %.not.i.i46, label %lean_dec.exit, label %82

82:                                               ; preds = %81
  tail call void @lean_dec_ref_cold(ptr noundef nonnull %73) #6
  br label %lean_dec.exit

lean_dec.exit:                                    ; preds = %82, %81, %79, %lean_ensure_exclusive_array.exit.i43
  store ptr %66, ptr %72, align 8, !tbaa !4
  %exitcond.not = icmp eq i64 %67, %2
  br i1 %exitcond.not, label %._crit_edge, label %26

83:                                               ; preds = %25, %24, %22, %lean_dec.exit30
  ret ptr %.027.lcssa
}